target datalayout = "e-m:e-p270:32:32-p271:32:32-p272:64:64-i64:64-i128:128-f80:128-n8:16:32:64-S128"
target triple = "x86_64-pc-linux-gnu"

%struct.quic_demux_st = type { ptr, i64, i64, i64, ptr, ptr, ptr, ptr, %struct.ossl_list_st_urxe, %struct.ossl_list_st_urxe, i8 }
%struct.ossl_list_st_urxe = type { ptr, ptr, i64 }
%struct.quic_urxe_st = type { %struct.anon, i64, i64, i64, i64, i64, %union.bio_addr_st, %union.bio_addr_st, %struct.OSSL_TIME, i8, i8 }
%struct.anon = type { ptr, ptr }
%union.bio_addr_st = type { %struct.sockaddr_in6, [84 x i8] }
%struct.sockaddr_in6 = type { i16, i16, i32, %struct.in6_addr, i32 }
%struct.in6_addr = type { %union.anon }
%union.anon = type { [4 x i32] }
%struct.OSSL_TIME = type { i64 }

@.str = private unnamed_addr constant [33 x i8] c"../openssl/ssl/quic/quic_demux.c\00", align 1

; Function Attrs: inlinehint nounwind uwtable
define internal void @ossl_list_urxe_insert_after(ptr noundef %0, ptr noundef %1, ptr noundef %2) #3 {
  %4 = alloca ptr, align 8
  %5 = alloca ptr, align 8
  %6 = alloca ptr, align 8
  store ptr %0, ptr %4, align 8, !tbaa !22
  store ptr %1, ptr %5, align 8, !tbaa !24
  store ptr %2, ptr %6, align 8, !tbaa !24
  %7 = load ptr, ptr %5, align 8, !tbaa !24
  %8 = load ptr, ptr %6, align 8, !tbaa !24
  %9 = getelementptr inbounds nuw %struct.quic_urxe_st, ptr %8, i32 0, i32 0
  %10 = getelementptr inbounds nuw %struct.anon, ptr %9, i32 0, i32 1
  store ptr %7, ptr %10, align 8, !tbaa !58
  %11 = load ptr, ptr %5, align 8, !tbaa !24
  %12 = getelementptr inbounds nuw %struct.quic_urxe_st, ptr %11, i32 0, i32 0
  %13 = getelementptr inbounds nuw %struct.anon, ptr %12, i32 0, i32 0
  %14 = load ptr, ptr %13, align 8, !tbaa !56
  %15 = load ptr, ptr %6, align 8, !tbaa !24
  %16 = getelementptr inbounds nuw %struct.quic_urxe_st, ptr %15, i32 0, i32 0
  %17 = getelementptr inbounds nuw %struct.anon, ptr %16, i32 0, i32 0
  store ptr %14, ptr %17, align 8, !tbaa !56
  %18 = load ptr, ptr %5, align 8, !tbaa !24
  %19 = getelementptr inbounds nuw %struct.quic_urxe_st, ptr %18, i32 0, i32 0
  %20 = getelementptr inbounds nuw %struct.anon, ptr %19, i32 0, i32 0
  %21 = load ptr, ptr %20, align 8, !tbaa !56
  %22 = icmp ne ptr %21, null
  br i1 %22, label %23, label %31

23:                                               ; preds = %3
  %24 = load ptr, ptr %6, align 8, !tbaa !24
  %25 = load ptr, ptr %5, align 8, !tbaa !24
  %26 = getelementptr inbounds nuw %struct.quic_urxe_st, ptr %25, i32 0, i32 0
  %27 = getelementptr inbounds nuw %struct.anon, ptr %26, i32 0, i32 0
  %28 = load ptr, ptr %27, align 8, !tbaa !56
  %29 = getelementptr inbounds nuw %struct.quic_urxe_st, ptr %28, i32 0, i32 0
  %30 = getelementptr inbounds nuw %struct.anon, ptr %29, i32 0, i32 1
  store ptr %24, ptr %30, align 8, !tbaa !58
  br label %31

31:                                               ; preds = %23, %3
  %32 = load ptr, ptr %6, align 8, !tbaa !24
  %33 = load ptr, ptr %5, align 8, !tbaa !24
  %34 = getelementptr inbounds nuw %struct.quic_urxe_st, ptr %33, i32 0, i32 0
  %35 = getelementptr inbounds nuw %struct.anon, ptr %34, i32 0, i32 0
  store ptr %32, ptr %35, align 8, !tbaa !56
  %36 = load ptr, ptr %4, align 8, !tbaa !22
  %37 = getelementptr inbounds nuw %struct.ossl_list_st_urxe, ptr %36, i32 0, i32 1
  %38 = load ptr, ptr %37, align 8, !tbaa !57
  %39 = load ptr, ptr %5, align 8, !tbaa !24
  %40 = icmp eq ptr %38, %39
  br i1 %40, label %41, label %45

41:                                               ; preds = %31
  %42 = load ptr, ptr %6, align 8, !tbaa !24
  %43 = load ptr, ptr %4, align 8, !tbaa !22
  %44 = getelementptr inbounds nuw %struct.ossl_list_st_urxe, ptr %43, i32 0, i32 1
  store ptr %42, ptr %44, align 8, !tbaa !57
  br label %45

45:                                               ; preds = %41, %31
  %46 = load ptr, ptr %4, align 8, !tbaa !22
  %47 = getelementptr inbounds nuw %struct.ossl_list_st_urxe, ptr %46, i32 0, i32 2
  %48 = load i64, ptr %47, align 8, !tbaa !59
  %49 = add i64 %48, 1
  store i64 %49, ptr %47, align 8, !tbaa !59
  ret void
}

; Function Attrs: inlinehint nounwind uwtable
define internal void @ossl_list_urxe_insert_head(ptr noundef %0, ptr noundef %1) #3 {
  %3 = alloca ptr, align 8
  %4 = alloca ptr, align 8
  store ptr %0, ptr %3, align 8, !tbaa !22
  store ptr %1, ptr %4, align 8, !tbaa !24
  %5 = load ptr, ptr %3, align 8, !tbaa !22
  %6 = getelementptr inbounds nuw %struct.ossl_list_st_urxe, ptr %5, i32 0, i32 0
  %7 = load ptr, ptr %6, align 8, !tbaa !31
  %8 = icmp ne ptr %7, null
  br i1 %8, label %9, label %16

9:                                                ; preds = %2
  %10 = load ptr, ptr %4, align 8, !tbaa !24
  %11 = load ptr, ptr %3, align 8, !tbaa !22
  %12 = getelementptr inbounds nuw %struct.ossl_list_st_urxe, ptr %11, i32 0, i32 0
  %13 = load ptr, ptr %12, align 8, !tbaa !31
  %14 = getelementptr inbounds nuw %struct.quic_urxe_st, ptr %13, i32 0, i32 0
  %15 = getelementptr inbounds nuw %struct.anon, ptr %14, i32 0, i32 1
  store ptr %10, ptr %15, align 8, !tbaa !58
  br label %16

16:                                               ; preds = %9, %2
  %17 = load ptr, ptr %3, align 8, !tbaa !22
  %18 = getelementptr inbounds nuw %struct.ossl_list_st_urxe, ptr %17, i32 0, i32 0
  %19 = load ptr, ptr %18, align 8, !tbaa !31
  %20 = load ptr, ptr %4, align 8, !tbaa !24
  %21 = getelementptr inbounds nuw %struct.quic_urxe_st, ptr %20, i32 0, i32 0
  %22 = getelementptr inbounds nuw %struct.anon, ptr %21, i32 0, i32 0
  store ptr %19, ptr %22, align 8, !tbaa !56
  %23 = load ptr, ptr %4, align 8, !tbaa !24
  %24 = getelementptr inbounds nuw %struct.quic_urxe_st, ptr %23, i32 0, i32 0
  %25 = getelementptr inbounds nuw %struct.anon, ptr %24, i32 0, i32 1
  store ptr null, ptr %25, align 8, !tbaa !58
  %26 = load ptr, ptr %4, align 8, !tbaa !24
  %27 = load ptr, ptr %3, align 8, !tbaa !22
  %28 = getelementptr inbounds nuw %struct.ossl_list_st_urxe, ptr %27, i32 0, i32 0
  store ptr %26, ptr %28, align 8, !tbaa !31
  %29 = load ptr, ptr %3, align 8, !tbaa !22
  %30 = getelementptr inbounds nuw %struct.ossl_list_st_urxe, ptr %29, i32 0, i32 1
  %31 = load ptr, ptr %30, align 8, !tbaa !57
  %32 = icmp eq ptr %31, null
  br i1 %32, label %33, label %37

33:                                               ; preds = %16
  %34 = load ptr, ptr %4, align 8, !tbaa !24
  %35 = load ptr, ptr %3, align 8, !tbaa !22
  %36 = getelementptr inbounds nuw %struct.ossl_list_st_urxe, ptr %35, i32 0, i32 1
  store ptr %34, ptr %36, align 8, !tbaa !57
  br label %37

37:                                               ; preds = %33, %16
  %38 = load ptr, ptr %3, align 8, !tbaa !22
  %39 = getelementptr inbounds nuw %struct.ossl_list_st_urxe, ptr %38, i32 0, i32 2
  %40 = load i64, ptr %39, align 8, !tbaa !59
  %41 = add i64 %40, 1
  store i64 %41, ptr %39, align 8, !tbaa !59
  ret void
}

; Function Attrs: inlinehint nounwind uwtable
define internal void @ossl_list_urxe_remove(ptr noundef %0, ptr noundef %1) #3 {
  %3 = alloca ptr, align 8
  %4 = alloca ptr, align 8
  store ptr %0, ptr %3, align 8, !tbaa !22
  store ptr %1, ptr %4, align 8, !tbaa !24
  %5 = load ptr, ptr %3, align 8, !tbaa !22
  %6 = getelementptr inbounds nuw %struct.ossl_list_st_urxe, ptr %5, i32 0, i32 0
  %7 = load ptr, ptr %6, align 8, !tbaa !31
  %8 = load ptr, ptr %4, align 8, !tbaa !24
  %9 = icmp eq ptr %7, %8
  br i1 %9, label %10, label %17

10:                                               ; preds = %2
  %11 = load ptr, ptr %4, align 8, !tbaa !24
  %12 = getelementptr inbounds nuw %struct.quic_urxe_st, ptr %11, i32 0, i32 0
  %13 = getelementptr inbounds nuw %struct.anon, ptr %12, i32 0, i32 0
  %14 = load ptr, ptr %13, align 8, !tbaa !56
  %15 = load ptr, ptr %3, align 8, !tbaa !22
  %16 = getelementptr inbounds nuw %struct.ossl_list_st_urxe, ptr %15, i32 0, i32 0
  store ptr %14, ptr %16, align 8, !tbaa !31
  br label %17

17:                                               ; preds = %10, %2
  %18 = load ptr, ptr %3, align 8, !tbaa !22
  %19 = getelementptr inbounds nuw %struct.ossl_list_st_urxe, ptr %18, i32 0, i32 1
  %20 = load ptr, ptr %19, align 8, !tbaa !57
  %21 = load ptr, ptr %4, align 8, !tbaa !24
  %22 = icmp eq ptr %20, %21
  br i1 %22, label %23, label %30

23:                                               ; preds = %17
  %24 = load ptr, ptr %4, align 8, !tbaa !24
  %25 = getelementptr inbounds nuw %struct.quic_urxe_st, ptr %24, i32 0, i32 0
  %26 = getelementptr inbounds nuw %struct.anon, ptr %25, i32 0, i32 1
  %27 = load ptr, ptr %26, align 8, !tbaa !58
  %28 = load ptr, ptr %3, align 8, !tbaa !22
  %29 = getelementptr inbounds nuw %struct.ossl_list_st_urxe, ptr %28, i32 0, i32 1
  store ptr %27, ptr %29, align 8, !tbaa !57
  br label %30

30:                                               ; preds = %23, %17
  %31 = load ptr, ptr %4, align 8, !tbaa !24
  %32 = getelementptr inbounds nuw %struct.quic_urxe_st, ptr %31, i32 0, i32 0
  %33 = getelementptr inbounds nuw %struct.anon, ptr %32, i32 0, i32 1
  %34 = load ptr, ptr %33, align 8, !tbaa !58
  %35 = icmp ne ptr %34, null
  br i1 %35, label %36, label %47

36:                                               ; preds = %30
  %37 = load ptr, ptr %4, align 8, !tbaa !24
  %38 = getelementptr inbounds nuw %struct.quic_urxe_st, ptr %37, i32 0, i32 0
  %39 = getelementptr inbounds nuw %struct.anon, ptr %38, i32 0, i32 0
  %40 = load ptr, ptr %39, align 8, !tbaa !56
  %41 = load ptr, ptr %4, align 8, !tbaa !24
  %42 = getelementptr inbounds nuw %struct.quic_urxe_st, ptr %41, i32 0, i32 0
  %43 = getelementptr inbounds nuw %struct.anon, ptr %42, i32 0, i32 1
  %44 = load ptr, ptr %43, align 8, !tbaa !58
  %45 = getelementptr inbounds nuw %struct.quic_urxe_st, ptr %44, i32 0, i32 0
  %46 = getelementptr inbounds nuw %struct.anon, ptr %45, i32 0, i32 0
  store ptr %40, ptr %46, align 8, !tbaa !56
  br label %47

47:                                               ; preds = %36, %30
  %48 = load ptr, ptr %4, align 8, !tbaa !24
  %49 = getelementptr inbounds nuw %struct.quic_urxe_st, ptr %48, i32 0, i32 0
  %50 = getelementptr inbounds nuw %struct.anon, ptr %49, i32 0, i32 0
  %51 = load ptr, ptr %50, align 8, !tbaa !56
  %52 = icmp ne ptr %51, null
  br i1 %52, label %53, label %64

53:                                               ; preds = %47
  %54 = load ptr, ptr %4, align 8, !tbaa !24
  %55 = getelementptr inbounds nuw %struct.quic_urxe_st, ptr %54, i32 0, i32 0
  %56 = getelementptr inbounds nuw %struct.anon, ptr %55, i32 0, i32 1
  %57 = load ptr, ptr %56, align 8, !tbaa !58
  %58 = load ptr, ptr %4, align 8, !tbaa !24
  %59 = getelementptr inbounds nuw %struct.quic_urxe_st, ptr %58, i32 0, i32 0
  %60 = getelementptr inbounds nuw %struct.anon, ptr %59, i32 0, i32 0
  %61 = load ptr, ptr %60, align 8, !tbaa !56
  %62 = getelementptr inbounds nuw %struct.quic_urxe_st, ptr %61, i32 0, i32 0
  %63 = getelementptr inbounds nuw %struct.anon, ptr %62, i32 0, i32 1
  store ptr %57, ptr %63, align 8, !tbaa !58
  br label %64

64:                                               ; preds = %53, %47
  %65 = load ptr, ptr %3, align 8, !tbaa !22
  %66 = getelementptr inbounds nuw %struct.ossl_list_st_urxe, ptr %65, i32 0, i32 2
  %67 = load i64, ptr %66, align 8, !tbaa !59
  %68 = add i64 %67, -1
  store i64 %68, ptr %66, align 8, !tbaa !59
  %69 = load ptr, ptr %4, align 8, !tbaa !24
  %70 = getelementptr inbounds nuw %struct.quic_urxe_st, ptr %69, i32 0, i32 0
  call void @llvm.memset.p0.i64(ptr align 8 %70, i8 0, i64 16, i1 false)
  ret void
}

; Function Attrs: inlinehint nounwind uwtable
define internal ptr @ossl_list_urxe_prev(ptr noundef %0) #3 {
  %2 = alloca ptr, align 8
  store ptr %0, ptr %2, align 8, !tbaa !24
  %3 = load ptr, ptr %2, align 8, !tbaa !24
  %4 = getelementptr inbounds nuw %struct.quic_urxe_st, ptr %3, i32 0, i32 0
  %5 = getelementptr inbounds nuw %struct.anon, ptr %4, i32 0, i32 1
  %6 = load ptr, ptr %5, align 8, !tbaa !58
  ret ptr %6
}

; Function Attrs: nounwind uwtable
define internal ptr @demux_resize_urxe(ptr noundef %0, ptr noundef %1, i64 noundef %2) #0 {
  %4 = alloca ptr, align 8
  %5 = alloca ptr, align 8
  %6 = alloca ptr, align 8
  %7 = alloca i64, align 8
  %8 = alloca ptr, align 8
  %9 = alloca ptr, align 8
  %10 = alloca i32, align 4
  store ptr %0, ptr %5, align 8, !tbaa !11
  store ptr %1, ptr %6, align 8, !tbaa !24
  store i64 %2, ptr %7, align 8, !tbaa !8
  call void @llvm.lifetime.start.p0(i64 8, ptr %8) #7
  call void @llvm.lifetime.start.p0(i64 8, ptr %9) #7
  %11 = load ptr, ptr %6, align 8, !tbaa !24
  %12 = getelementptr inbounds nuw %struct.quic_urxe_st, ptr %11, i32 0, i32 10
  %13 = load i8, ptr %12, align 1, !tbaa !32
  %14 = sext i8 %13 to i32
  %15 = icmp eq i32 %14, 0
  %16 = zext i1 %15 to i32
  %17 = icmp ne i32 %16, 0
  %18 = xor i1 %17, true
  %19 = xor i1 %18, true
  %20 = zext i1 %19 to i32
  %21 = sext i32 %20 to i64
  %22 = call i64 @llvm.expect.i64(i64 %21, i64 1)
  %23 = icmp ne i64 %22, 0
  br i1 %23, label %25, label %24

24:                                               ; preds = %3
  store ptr null, ptr %4, align 8
  store i32 1, ptr %10, align 4
  br label %67

25:                                               ; preds = %3
  %26 = load ptr, ptr %6, align 8, !tbaa !24
  %27 = call ptr @ossl_list_urxe_prev(ptr noundef %26)
  store ptr %27, ptr %9, align 8, !tbaa !24
  %28 = load ptr, ptr %5, align 8, !tbaa !11
  %29 = getelementptr inbounds nuw %struct.quic_demux_st, ptr %28, i32 0, i32 8
  %30 = load ptr, ptr %6, align 8, !tbaa !24
  call void @ossl_list_urxe_remove(ptr noundef %29, ptr noundef %30)
  %31 = load ptr, ptr %6, align 8, !tbaa !24
  %32 = load i64, ptr %7, align 8, !tbaa !8
  %33 = add i64 296, %32
  %34 = call ptr @CRYPTO_realloc(ptr noundef %31, i64 noundef %33, ptr noundef @.str, i32 noundef 184)
  store ptr %34, ptr %8, align 8, !tbaa !24
  %35 = load ptr, ptr %8, align 8, !tbaa !24
  %36 = icmp eq ptr %35, null
  br i1 %36, label %37, label %50

37:                                               ; preds = %25
  %38 = load ptr, ptr %9, align 8, !tbaa !24
  %39 = icmp eq ptr %38, null
  br i1 %39, label %40, label %44

40:                                               ; preds = %37
  %41 = load ptr, ptr %5, align 8, !tbaa !11
  %42 = getelementptr inbounds nuw %struct.quic_demux_st, ptr %41, i32 0, i32 8
  %43 = load ptr, ptr %6, align 8, !tbaa !24
  call void @ossl_list_urxe_insert_head(ptr noundef %42, ptr noundef %43)
  br label %49

44:                                               ; preds = %37
  %45 = load ptr, ptr %5, align 8, !tbaa !11
  %46 = getelementptr inbounds nuw %struct.quic_demux_st, ptr %45, i32 0, i32 8
  %47 = load ptr, ptr %9, align 8, !tbaa !24
  %48 = load ptr, ptr %6, align 8, !tbaa !24
  call void @ossl_list_urxe_insert_after(ptr noundef %46, ptr noundef %47, ptr noundef %48)
  br label %49

49:                                               ; preds = %44, %40
  store ptr null, ptr %4, align 8
  store i32 1, ptr %10, align 4
  br label %67

50:                                               ; preds = %25
  %51 = load ptr, ptr %9, align 8, !tbaa !24
  %52 = icmp eq ptr %51, null
  br i1 %52, label %53, label %57

53:                                               ; preds = %50
  %54 = load ptr, ptr %5, align 8, !tbaa !11
  %55 = getelementptr inbounds nuw %struct.quic_demux_st, ptr %54, i32 0, i32 8
  %56 = load ptr, ptr %8, align 8, !tbaa !24
  call void @ossl_list_urxe_insert_head(ptr noundef %55, ptr noundef %56)
  br label %62

57:                                               ; preds = %50
  %58 = load ptr, ptr %5, align 8, !tbaa !11
  %59 = getelementptr inbounds nuw %struct.quic_demux_st, ptr %58, i32 0, i32 8
  %60 = load ptr, ptr %9, align 8, !tbaa !24
  %61 = load ptr, ptr %8, align 8, !tbaa !24
  call void @ossl_list_urxe_insert_after(ptr noundef %59, ptr noundef %60, ptr noundef %61)
  br label %62

62:                                               ; preds = %57, %53
  %63 = load i64, ptr %7, align 8, !tbaa !8
  %64 = load ptr, ptr %8, align 8, !tbaa !24
  %65 = getelementptr inbounds nuw %struct.quic_urxe_st, ptr %64, i32 0, i32 2
  store i64 %63, ptr %65, align 8, !tbaa !40
  %66 = load ptr, ptr %8, align 8, !tbaa !24
  store ptr %66, ptr %4, align 8
  store i32 1, ptr %10, align 4
  br label %67

67:                                               ; preds = %62, %49, %24
  call void @llvm.lifetime.end.p0(i64 8, ptr %9) #7
  call void @llvm.lifetime.end.p0(i64 8, ptr %8) #7
  %68 = load ptr, ptr %4, align 8
  ret ptr %68
}

; Function Attrs: nounwind uwtable
define internal ptr @demux_reserve_urxe(ptr noundef %0, ptr noundef %1, i64 noundef %2) #0 {
  %4 = alloca ptr, align 8
  %5 = alloca ptr, align 8
  %6 = alloca i64, align 8
  store ptr %0, ptr %4, align 8, !tbaa !11
  store ptr %1, ptr %5, align 8, !tbaa !24
  store i64 %2, ptr %6, align 8, !tbaa !8
  %7 = load ptr, ptr %5, align 8, !tbaa !24
  %8 = getelementptr inbounds nuw %struct.quic_urxe_st, ptr %7, i32 0, i32 2
  %9 = load i64, ptr %8, align 8, !tbaa !40
  %10 = load i64, ptr %6, align 8, !tbaa !8
  %11 = icmp ult i64 %9, %10
  br i1 %11, label %12, label %17

12:                                               ; preds = %3
  %13 = load ptr, ptr %4, align 8, !tbaa !11
  %14 = load ptr, ptr %5, align 8, !tbaa !24
  %15 = load i64, ptr %6, align 8, !tbaa !8
  %16 = call ptr @demux_resize_urxe(ptr noundef %13, ptr noundef %14, i64 noundef %15)
  br label %19

17:                                               ; preds = %3
  %18 = load ptr, ptr %5, align 8, !tbaa !24
  br label %19

19:                                               ; preds = %17, %12
  %20 = phi ptr [ %16, %12 ], [ %18, %17 ]
  ret ptr %20
}