; Function Attrs: nounwind uwtable
define internal fastcc ptr @demux_reserve_urxe(ptr noundef captures(none) %0, ptr noundef %1, i64 noundef %2) unnamed_addr #0 {
  %4 = getelementptr inbounds nuw i8, ptr %1, i64 24
  %5 = load i64, ptr %4, align 8, !tbaa !29
  %6 = icmp ult i64 %5, %2
  br i1 %6, label %7, label %demux_resize_urxe.exit

7:                                                ; preds = %3
  %8 = getelementptr inbounds nuw i8, ptr %1, i64 289
  %9 = load i8, ptr %8, align 1, !tbaa !31
  %10 = icmp eq i8 %9, 0
  br i1 %10, label %11, label %demux_resize_urxe.exit, !prof !49

11:                                               ; preds = %7
  %12 = getelementptr i8, ptr %1, i64 8
  %.val.i = load ptr, ptr %12, align 8, !tbaa !23
  %13 = getelementptr inbounds nuw i8, ptr %0, i64 64
  %14 = load ptr, ptr %13, align 8, !tbaa !17
  %15 = icmp eq ptr %14, %1
  br i1 %15, label %16, label %18

16:                                               ; preds = %11
  %17 = load ptr, ptr %1, align 8, !tbaa !18
  store ptr %17, ptr %13, align 8, !tbaa !17
  br label %18

18:                                               ; preds = %16, %11
  %19 = getelementptr inbounds nuw i8, ptr %0, i64 72
  %20 = load ptr, ptr %19, align 8, !tbaa !22
  %21 = icmp eq ptr %20, %1
  br i1 %21, label %22, label %._crit_edge.i.i

22:                                               ; preds = %18
  store ptr %.val.i, ptr %19, align 8, !tbaa !22
  br label %._crit_edge.i.i

._crit_edge.i.i:                                  ; preds = %22, %18
  %.not.i.i = icmp eq ptr %.val.i, null
  %.pre19.i.i = load ptr, ptr %1, align 8, !tbaa !18
  br i1 %.not.i.i, label %24, label %23

23:                                               ; preds = %._crit_edge.i.i
  store ptr %.pre19.i.i, ptr %.val.i, align 8, !tbaa !18
  br label %24

24:                                               ; preds = %23, %._crit_edge.i.i
  %.not18.i.i = icmp eq ptr %.pre19.i.i, null
  br i1 %.not18.i.i, label %ossl_list_urxe_remove.exit.i, label %25

25:                                               ; preds = %24
  %26 = getelementptr inbounds nuw i8, ptr %.pre19.i.i, i64 8
  store ptr %.val.i, ptr %26, align 8, !tbaa !23
  br label %ossl_list_urxe_remove.exit.i

ossl_list_urxe_remove.exit.i:                     ; preds = %25, %24
  %27 = getelementptr inbounds nuw i8, ptr %0, i64 80
  %28 = load i64, ptr %27, align 8, !tbaa !24
  %29 = add i64 %28, -1
  store i64 %29, ptr %27, align 8, !tbaa !24
  tail call void @llvm.memset.p0.i64(ptr noundef nonnull align 8 dereferenceable(16) %1, i8 0, i64 16, i1 false)
  %30 = add i64 %2, 296
  %31 = tail call ptr @CRYPTO_realloc(ptr noundef nonnull %1, i64 noundef %30, ptr noundef nonnull @.str, i32 noundef 184) #8
  %32 = icmp eq ptr %31, null
  br i1 %32, label %33, label %54

33:                                               ; preds = %ossl_list_urxe_remove.exit.i
  br i1 %.not.i.i, label %34, label %44

34:                                               ; preds = %33
  %35 = load ptr, ptr %13, align 8, !tbaa !17
  %.not.i24.i = icmp eq ptr %35, null
  br i1 %.not.i24.i, label %38, label %36

36:                                               ; preds = %34
  %37 = getelementptr inbounds nuw i8, ptr %35, i64 8
  store ptr %1, ptr %37, align 8, !tbaa !23
  br label %38

38:                                               ; preds = %36, %34
  store ptr %35, ptr %1, align 8, !tbaa !18
  store ptr null, ptr %12, align 8, !tbaa !23
  store ptr %1, ptr %13, align 8, !tbaa !17
  %39 = load ptr, ptr %19, align 8, !tbaa !22
  %40 = icmp eq ptr %39, null
  br i1 %40, label %41, label %ossl_list_urxe_insert_head.exit.i

41:                                               ; preds = %38
  store ptr %1, ptr %19, align 8, !tbaa !22
  br label %ossl_list_urxe_insert_head.exit.i

ossl_list_urxe_insert_head.exit.i:                ; preds = %41, %38
  %42 = load i64, ptr %27, align 8, !tbaa !24
  %43 = add i64 %42, 1
  store i64 %43, ptr %27, align 8, !tbaa !24
  br label %demux_resize_urxe.exit

44:                                               ; preds = %33
  store ptr %.val.i, ptr %12, align 8, !tbaa !23
  %45 = load ptr, ptr %.val.i, align 8, !tbaa !18
  store ptr %45, ptr %1, align 8, !tbaa !18
  %.not.i25.i = icmp eq ptr %45, null
  br i1 %.not.i25.i, label %48, label %46

46:                                               ; preds = %44
  %47 = getelementptr inbounds nuw i8, ptr %45, i64 8
  store ptr %1, ptr %47, align 8, !tbaa !23
  br label %48

48:                                               ; preds = %46, %44
  store ptr %1, ptr %.val.i, align 8, !tbaa !18
  %49 = load ptr, ptr %19, align 8, !tbaa !22
  %50 = icmp eq ptr %49, %.val.i
  br i1 %50, label %51, label %ossl_list_urxe_insert_after.exit.i

51:                                               ; preds = %48
  store ptr %1, ptr %19, align 8, !tbaa !22
  br label %ossl_list_urxe_insert_after.exit.i

ossl_list_urxe_insert_after.exit.i:               ; preds = %51, %48
  %52 = load i64, ptr %27, align 8, !tbaa !24
  %53 = add i64 %52, 1
  store i64 %53, ptr %27, align 8, !tbaa !24
  br label %demux_resize_urxe.exit

54:                                               ; preds = %ossl_list_urxe_remove.exit.i
  br i1 %.not.i.i, label %55, label %63

55:                                               ; preds = %54
  %56 = load ptr, ptr %13, align 8, !tbaa !17
  %.not.i26.i = icmp eq ptr %56, null
  br i1 %.not.i26.i, label %59, label %57

57:                                               ; preds = %55
  %58 = getelementptr inbounds nuw i8, ptr %56, i64 8
  store ptr %31, ptr %58, align 8, !tbaa !23
  br label %59

59:                                               ; preds = %57, %55
  store ptr %56, ptr %31, align 8, !tbaa !18
  %60 = getelementptr inbounds nuw i8, ptr %31, i64 8
  store ptr null, ptr %60, align 8, !tbaa !23
  store ptr %31, ptr %13, align 8, !tbaa !17
  %61 = load ptr, ptr %19, align 8, !tbaa !22
  %62 = icmp eq ptr %61, null
  br i1 %62, label %ossl_list_urxe_insert_head.exit27.sink.split.i, label %ossl_list_urxe_insert_head.exit27.i

63:                                               ; preds = %54
  %64 = getelementptr inbounds nuw i8, ptr %31, i64 8
  store ptr %.val.i, ptr %64, align 8, !tbaa !23
  %65 = load ptr, ptr %.val.i, align 8, !tbaa !18
  store ptr %65, ptr %31, align 8, !tbaa !18
  %.not.i28.i = icmp eq ptr %65, null
  br i1 %.not.i28.i, label %68, label %66

66:                                               ; preds = %63
  %67 = getelementptr inbounds nuw i8, ptr %65, i64 8
  store ptr %31, ptr %67, align 8, !tbaa !23
  br label %68

68:                                               ; preds = %66, %63
  store ptr %31, ptr %.val.i, align 8, !tbaa !18
  %69 = load ptr, ptr %19, align 8, !tbaa !22
  %70 = icmp eq ptr %69, %.val.i
  br i1 %70, label %ossl_list_urxe_insert_head.exit27.sink.split.i, label %ossl_list_urxe_insert_head.exit27.i

ossl_list_urxe_insert_head.exit27.sink.split.i:   ; preds = %68, %59
  store ptr %31, ptr %19, align 8, !tbaa !22
  br label %ossl_list_urxe_insert_head.exit27.i

ossl_list_urxe_insert_head.exit27.i:              ; preds = %ossl_list_urxe_insert_head.exit27.sink.split.i, %68, %59
  %storemerge.in.i = load i64, ptr %27, align 8, !tbaa !24
  %storemerge.i = add i64 %storemerge.in.i, 1
  store i64 %storemerge.i, ptr %27, align 8, !tbaa !24
  %71 = getelementptr inbounds nuw i8, ptr %31, i64 24
  store i64 %2, ptr %71, align 8, !tbaa !29
  br label %demux_resize_urxe.exit

demux_resize_urxe.exit:                           ; preds = %ossl_list_urxe_insert_head.exit27.i, %ossl_list_urxe_insert_after.exit.i, %ossl_list_urxe_insert_head.exit.i, %7, %3
  %72 = phi ptr [ %1, %3 ], [ %31, %ossl_list_urxe_insert_head.exit27.i ], [ null, %7 ], [ null, %ossl_list_urxe_insert_after.exit.i ], [ null, %ossl_list_urxe_insert_head.exit.i ]
  ret ptr %72
}